; Function Attrs: mustprogress uwtable
define void @_ZN6icu_7514CurrencyAmountC2EdNS_14ConstChar16PtrER10UErrorCode(ptr noundef nonnull align 8 dereferenceable(128) %this, double noundef %amount, ptr nocapture noundef readonly %isoCode, ptr noundef nonnull align 4 dereferenceable(4) %ec) unnamed_addr #0 align 2 personality ptr @__gxx_personality_v0 {
entry:
  %ref.tmp = alloca %"class.icu_75::Formattable", align 8
  %agg.tmp = alloca %"class.icu_75::ConstChar16Ptr", align 8
  call void @_ZN6icu_7511FormattableC1Ed(ptr noundef nonnull align 8 dereferenceable(112) %ref.tmp, double noundef %amount)
  %call = call noundef ptr @_ZN6icu_757UMemorynwEm(i64 noundef 32) #6
  %new.isnull.not = icmp eq ptr %call, null
  br i1 %new.isnull.not, label %new.cont, label %new.notnull

new.notnull:                                      ; preds = %entry
  %0 = load i64, ptr %isoCode, align 8
  store i64 %0, ptr %agg.tmp, align 8
  invoke void @_ZN6icu_7512CurrencyUnitC1ENS_14ConstChar16PtrER10UErrorCode(ptr noundef nonnull align 8 dereferenceable(28) %call, ptr noundef nonnull %agg.tmp, ptr noundef nonnull align 4 dereferenceable(4) %ec)
          to label %new.cont unwind label %cleanup.action8

new.cont:                                         ; preds = %new.notnull, %entry
  invoke void @_ZN6icu_757MeasureC2ERKNS_11FormattableEPNS_11MeasureUnitER10UErrorCode(ptr noundef nonnull align 8 dereferenceable(128) %this, ptr noundef nonnull align 8 dereferenceable(112) %ref.tmp, ptr noundef %call, ptr noundef nonnull align 4 dereferenceable(4) %ec)
          to label %invoke.cont3 unwind label %lpad

invoke.cont3:                                     ; preds = %new.cont
  br i1 %new.isnull.not, label %cleanup.done, label %cleanup.action

cleanup.action:                                   ; preds = %invoke.cont3
  %1 = load ptr, ptr %agg.tmp, align 8
  call void asm sideeffect "", "rm,~{memory},~{dirflag},~{fpsr},~{flags}"(ptr %1) #6, !srcloc !4
  br label %cleanup.done

cleanup.done:                                     ; preds = %cleanup.action, %invoke.cont3
  call void @_ZN6icu_7511FormattableD1Ev(ptr noundef nonnull align 8 dereferenceable(112) %ref.tmp) #6
  store ptr getelementptr inbounds ({ [6 x ptr] }, ptr @_ZTVN6icu_7514CurrencyAmountE, i64 0, i32 0, i64 2), ptr %this, align 8
  ret void

lpad:                                             ; preds = %new.cont
  %2 = landingpad { ptr, i32 }
          cleanup
  br i1 %new.isnull.not, label %cleanup.done9, label %cleanup.done6

cleanup.done6:                                    ; preds = %lpad
  %3 = load ptr, ptr %agg.tmp, align 8
  call void asm sideeffect "", "rm,~{memory},~{dirflag},~{fpsr},~{flags}"(ptr %3) #6, !srcloc !4
  br label %cleanup.done9

cleanup.action8:                                  ; preds = %new.notnull
  %4 = landingpad { ptr, i32 }
          cleanup
  %5 = load ptr, ptr %agg.tmp, align 8
  call void asm sideeffect "", "rm,~{memory},~{dirflag},~{fpsr},~{flags}"(ptr %5) #6, !srcloc !4
  call void @_ZN6icu_757UMemorydlEPv(ptr noundef nonnull %call) #6
  br label %cleanup.done9

cleanup.done9:                                    ; preds = %lpad, %cleanup.done6, %cleanup.action8
  %6 = phi { ptr, i32 } [ %4, %cleanup.action8 ], [ %2, %cleanup.done6 ], [ %2, %lpad ]
  call void @_ZN6icu_7511FormattableD1Ev(ptr noundef nonnull align 8 dereferenceable(112) %ref.tmp) #6
  resume { ptr, i32 } %6
}